target datalayout = "e-m:e-p270:32:32-p271:32:32-p272:64:64-i64:64-i128:128-f80:128-n8:16:32:64-S128"
target triple = "x86_64-pc-linux-gnu"

%"class.cv::Mat" = type { i32, i32, i32, i32, ptr, ptr, ptr, ptr, ptr, ptr, %"struct.cv::MatSize", %"struct.cv::MatStep" }
%"struct.cv::MatSize" = type { ptr }
%"struct.cv::MatStep" = type { ptr, [2 x i64] }
%"struct.std::_Bit_const_iterator" = type { %"struct.std::_Bit_iterator_base.base", [4 x i8] }
%"struct.std::_Bit_iterator_base.base" = type <{ ptr, i32 }>
%"struct.std::_Bvector_base" = type { %"struct.std::_Bvector_base<std::allocator<bool>>::_Bvector_impl" }
%"struct.std::_Bvector_base<std::allocator<bool>>::_Bvector_impl" = type { %"struct.std::_Bvector_base<std::allocator<bool>>::_Bvector_impl_data" }
%"struct.std::_Bvector_base<std::allocator<bool>>::_Bvector_impl_data" = type { %"struct.std::_Bit_iterator", %"struct.std::_Bit_iterator", ptr }
%"struct.std::_Bit_iterator" = type { %"struct.std::_Bit_iterator_base.base", [4 x i8] }
%"struct.std::_Bit_reference" = type { ptr, i64 }
%"struct.std::_Bit_iterator_base" = type <{ ptr, i32, [4 x i8] }>

; Function Attrs: mustprogress nounwind uwtable
define linkonce_odr hidden void @_ZNSt18_Bit_iterator_base7_M_incrEl(ptr noundef nonnull align 8 dereferenceable(12) %0, i64 noundef %1) #4 comdat align 2 {
  %3 = alloca ptr, align 8
  %4 = alloca i64, align 8
  %5 = alloca i64, align 8
  store ptr %0, ptr %3, align 8, !tbaa !1099
  store i64 %1, ptr %4, align 8, !tbaa !56
  %6 = load ptr, ptr %3, align 8
  call void @llvm.lifetime.start.p0(i64 8, ptr %5) #3
  %7 = load i64, ptr %4, align 8, !tbaa !56
  %8 = getelementptr inbounds nuw %"struct.std::_Bit_iterator_base", ptr %6, i32 0, i32 1
  %9 = load i32, ptr %8, align 8, !tbaa !1101
  %10 = zext i32 %9 to i64
  %11 = add nsw i64 %7, %10
  store i64 %11, ptr %5, align 8, !tbaa !56
  %12 = load i64, ptr %5, align 8, !tbaa !56
  %13 = sdiv i64 %12, 64
  %14 = getelementptr inbounds nuw %"struct.std::_Bit_iterator_base", ptr %6, i32 0, i32 0
  %15 = load ptr, ptr %14, align 8, !tbaa !1094
  %16 = getelementptr inbounds i64, ptr %15, i64 %13
  store ptr %16, ptr %14, align 8, !tbaa !1094
  %17 = load i64, ptr %5, align 8, !tbaa !56
  %18 = srem i64 %17, 64
  store i64 %18, ptr %5, align 8, !tbaa !56
  %19 = load i64, ptr %5, align 8, !tbaa !56
  %20 = icmp slt i64 %19, 0
  br i1 %20, label %21, label %27

21:                                               ; preds = %2
  %22 = load i64, ptr %5, align 8, !tbaa !56
  %23 = add nsw i64 %22, 64
  store i64 %23, ptr %5, align 8, !tbaa !56
  %24 = getelementptr inbounds nuw %"struct.std::_Bit_iterator_base", ptr %6, i32 0, i32 0
  %25 = load ptr, ptr %24, align 8, !tbaa !1094
  %26 = getelementptr inbounds i64, ptr %25, i32 -1
  store ptr %26, ptr %24, align 8, !tbaa !1094
  br label %27

27:                                               ; preds = %21, %2
  %28 = load i64, ptr %5, align 8, !tbaa !56
  %29 = trunc i64 %28 to i32
  %30 = getelementptr inbounds nuw %"struct.std::_Bit_iterator_base", ptr %6, i32 0, i32 1
  store i32 %29, ptr %30, align 8, !tbaa !1101
  call void @llvm.lifetime.end.p0(i64 8, ptr %5) #3
  ret void
}

; Function Attrs: mustprogress nounwind uwtable
define linkonce_odr hidden noundef zeroext i1 @_ZNKSt14_Bit_referencecvbEv(ptr noundef nonnull align 8 dereferenceable(16) %0) #4 comdat align 2 {
  %2 = alloca ptr, align 8
  store ptr %0, ptr %2, align 8, !tbaa !1037
  %3 = load ptr, ptr %2, align 8
  %4 = getelementptr inbounds nuw %"struct.std::_Bit_reference", ptr %3, i32 0, i32 0
  %5 = load ptr, ptr %4, align 8, !tbaa !1039
  %6 = load i64, ptr %5, align 8, !tbaa !56
  %7 = getelementptr inbounds nuw %"struct.std::_Bit_reference", ptr %3, i32 0, i32 1
  %8 = load i64, ptr %7, align 8, !tbaa !1041
  %9 = and i64 %6, %8
  %10 = icmp ne i64 %9, 0
  %11 = xor i1 %10, true
  %12 = xor i1 %11, true
  ret i1 %12
}

; Function Attrs: mustprogress nounwind uwtable
define linkonce_odr hidden void @_ZNSt14_Bit_referenceC2EPmm(ptr noundef nonnull align 8 dereferenceable(16) %0, ptr noundef %1, i64 noundef %2) unnamed_addr #4 comdat align 2 {
  %4 = alloca ptr, align 8
  %5 = alloca ptr, align 8
  %6 = alloca i64, align 8
  store ptr %0, ptr %4, align 8, !tbaa !1037
  store ptr %1, ptr %5, align 8, !tbaa !453
  store i64 %2, ptr %6, align 8, !tbaa !56
  %7 = load ptr, ptr %4, align 8
  %8 = getelementptr inbounds nuw %"struct.std::_Bit_reference", ptr %7, i32 0, i32 0
  %9 = load ptr, ptr %5, align 8, !tbaa !453
  store ptr %9, ptr %8, align 8, !tbaa !1039
  %10 = getelementptr inbounds nuw %"struct.std::_Bit_reference", ptr %7, i32 0, i32 1
  %11 = load i64, ptr %6, align 8, !tbaa !56
  store i64 %11, ptr %10, align 8, !tbaa !1041
  ret void
}

; Function Attrs: mustprogress nounwind uwtable
define linkonce_odr hidden noundef nonnull align 8 dereferenceable(12) ptr @_ZNSt19_Bit_const_iteratorpLEl(ptr noundef nonnull align 8 dereferenceable(12) %0, i64 noundef %1) #4 comdat align 2 {
  %3 = alloca ptr, align 8
  %4 = alloca i64, align 8
  store ptr %0, ptr %3, align 8, !tbaa !1104
  store i64 %1, ptr %4, align 8, !tbaa !56
  %5 = load ptr, ptr %3, align 8
  %6 = load i64, ptr %4, align 8, !tbaa !56
  call void @_ZNSt18_Bit_iterator_base7_M_incrEl(ptr noundef nonnull align 8 dereferenceable(12) %5, i64 noundef %6)
  ret ptr %5
}

; Function Attrs: mustprogress nounwind uwtable
define linkonce_odr hidden void @_ZNSt18_Bit_iterator_baseC2EPmj(ptr noundef nonnull align 8 dereferenceable(12) %0, ptr noundef %1, i32 noundef %2) unnamed_addr #4 comdat align 2 {
  %4 = alloca ptr, align 8
  %5 = alloca ptr, align 8
  %6 = alloca i32, align 4
  store ptr %0, ptr %4, align 8, !tbaa !1099
  store ptr %1, ptr %5, align 8, !tbaa !453
  store i32 %2, ptr %6, align 4, !tbaa !34
  %7 = load ptr, ptr %4, align 8
  %8 = getelementptr inbounds nuw %"struct.std::_Bit_iterator_base", ptr %7, i32 0, i32 0
  %9 = load ptr, ptr %5, align 8, !tbaa !453
  store ptr %9, ptr %8, align 8, !tbaa !1094
  %10 = getelementptr inbounds nuw %"struct.std::_Bit_iterator_base", ptr %7, i32 0, i32 1
  %11 = load i32, ptr %6, align 4, !tbaa !34
  store i32 %11, ptr %10, align 8, !tbaa !1101
  ret void
}

; Function Attrs: mustprogress uwtable
define linkonce_odr hidden noundef zeroext i1 @_ZNKSt19_Bit_const_iteratordeEv(ptr noundef nonnull align 8 dereferenceable(12) %0) #5 comdat align 2 {
  %2 = alloca ptr, align 8
  %3 = alloca %"struct.std::_Bit_reference", align 8
  store ptr %0, ptr %2, align 8, !tbaa !1104
  %4 = load ptr, ptr %2, align 8
  call void @llvm.lifetime.start.p0(i64 16, ptr %3) #3
  %5 = getelementptr inbounds nuw %"struct.std::_Bit_iterator_base", ptr %4, i32 0, i32 0
  %6 = load ptr, ptr %5, align 8, !tbaa !1094
  %7 = getelementptr inbounds nuw %"struct.std::_Bit_iterator_base", ptr %4, i32 0, i32 1
  %8 = load i32, ptr %7, align 8, !tbaa !1101
  %9 = zext i32 %8 to i64
  %10 = shl i64 1, %9
  call void @_ZNSt14_Bit_referenceC2EPmm(ptr noundef nonnull align 8 dereferenceable(16) %3, ptr noundef %6, i64 noundef %10)
  %11 = call noundef zeroext i1 @_ZNKSt14_Bit_referencecvbEv(ptr noundef nonnull align 8 dereferenceable(16) %3) #3
  call void @llvm.lifetime.end.p0(i64 16, ptr %3) #3
  ret i1 %11
}

; Function Attrs: mustprogress uwtable
define linkonce_odr { ptr, i32 } @_ZStplRKSt19_Bit_const_iteratorl(ptr noundef nonnull align 8 dereferenceable(12) %0, i64 noundef %1) #5 comdat {
  %3 = alloca %"struct.std::_Bit_const_iterator", align 8
  %4 = alloca ptr, align 8
  %5 = alloca i64, align 8
  store ptr %0, ptr %4, align 8, !tbaa !1104
  store i64 %1, ptr %5, align 8, !tbaa !56
  %6 = load ptr, ptr %4, align 8, !tbaa !1104
  call void @llvm.memcpy.p0.p0.i64(ptr align 8 %3, ptr align 8 %6, i64 16, i1 false)
  %7 = load i64, ptr %5, align 8, !tbaa !56
  %8 = call noundef nonnull align 8 dereferenceable(12) ptr @_ZNSt19_Bit_const_iteratorpLEl(ptr noundef nonnull align 8 dereferenceable(12) %3, i64 noundef %7)
  %9 = load { ptr, i32 }, ptr %3, align 8
  ret { ptr, i32 } %9
}

; Function Attrs: mustprogress uwtable
define linkonce_odr hidden void @_ZNSt19_Bit_const_iteratorC2EPmj(ptr noundef nonnull align 8 dereferenceable(12) %0, ptr noundef %1, i32 noundef %2) unnamed_addr #5 comdat align 2 {
  %4 = alloca ptr, align 8
  %5 = alloca ptr, align 8
  %6 = alloca i32, align 4
  store ptr %0, ptr %4, align 8, !tbaa !1104
  store ptr %1, ptr %5, align 8, !tbaa !453
  store i32 %2, ptr %6, align 4, !tbaa !34
  %7 = load ptr, ptr %4, align 8
  %8 = load ptr, ptr %5, align 8, !tbaa !453
  %9 = load i32, ptr %6, align 4, !tbaa !34
  call void @_ZNSt18_Bit_iterator_baseC2EPmj(ptr noundef nonnull align 8 dereferenceable(12) %7, ptr noundef %8, i32 noundef %9)
  ret void
}

; Function Attrs: noinline noreturn nounwind uwtable
define linkonce_odr hidden void @__clang_call_terminate(ptr noundef %0) #13 comdat {
  %2 = call ptr @__cxa_begin_catch(ptr %0) #3
  call void @_ZSt9terminatev() #23
  unreachable
}

; Function Attrs: mustprogress nounwind uwtable
define linkonce_odr hidden void @_ZNSt19_Bit_const_iteratorC2ERKSt13_Bit_iterator(ptr noundef nonnull align 8 dereferenceable(12) %0, ptr noundef nonnull align 8 dereferenceable(12) %1) unnamed_addr #4 comdat align 2 {
  %3 = alloca ptr, align 8
  %4 = alloca ptr, align 8
  store ptr %0, ptr %3, align 8, !tbaa !1104
  store ptr %1, ptr %4, align 8, !tbaa !1112
  %5 = load ptr, ptr %3, align 8
  %6 = load ptr, ptr %4, align 8, !tbaa !1112
  %7 = getelementptr inbounds nuw %"struct.std::_Bit_iterator_base", ptr %6, i32 0, i32 0
  %8 = load ptr, ptr %7, align 8, !tbaa !1094
  %9 = load ptr, ptr %4, align 8, !tbaa !1112
  %10 = getelementptr inbounds nuw %"struct.std::_Bit_iterator_base", ptr %9, i32 0, i32 1
  %11 = load i32, ptr %10, align 8, !tbaa !1101
  call void @_ZNSt18_Bit_iterator_baseC2EPmj(ptr noundef nonnull align 8 dereferenceable(12) %5, ptr noundef %8, i32 noundef %11)
  ret void
}

; Function Attrs: mustprogress uwtable
define linkonce_odr hidden noundef zeroext i1 @_ZNKSt19_Bit_const_iteratorixEl(ptr noundef nonnull align 8 dereferenceable(12) %0, i64 noundef %1) #5 comdat align 2 {
  %3 = alloca ptr, align 8
  %4 = alloca i64, align 8
  %5 = alloca %"struct.std::_Bit_const_iterator", align 8
  %6 = alloca { ptr, i32 }, align 8
  store ptr %0, ptr %3, align 8, !tbaa !1104
  store i64 %1, ptr %4, align 8, !tbaa !56
  %7 = load ptr, ptr %3, align 8
  call void @llvm.lifetime.start.p0(i64 16, ptr %5) #3
  %8 = load i64, ptr %4, align 8, !tbaa !56
  %9 = call { ptr, i32 } @_ZStplRKSt19_Bit_const_iteratorl(ptr noundef nonnull align 8 dereferenceable(12) %7, i64 noundef %8)
  store { ptr, i32 } %9, ptr %6, align 8
  call void @llvm.memcpy.p0.p0.i64(ptr align 8 %5, ptr align 8 %6, i64 12, i1 false)
  %10 = call noundef zeroext i1 @_ZNKSt19_Bit_const_iteratordeEv(ptr noundef nonnull align 8 dereferenceable(12) %5)
  call void @llvm.lifetime.end.p0(i64 16, ptr %5) #3
  ret i1 %10
}

; Function Attrs: mustprogress nounwind uwtable
define linkonce_odr noundef i64 @_ZStmiRKSt18_Bit_iterator_baseS1_(ptr noundef nonnull align 8 dereferenceable(12) %0, ptr noundef nonnull align 8 dereferenceable(12) %1) #4 comdat {
  %3 = alloca ptr, align 8
  %4 = alloca ptr, align 8
  store ptr %0, ptr %3, align 8, !tbaa !1099
  store ptr %1, ptr %4, align 8, !tbaa !1099
  %5 = load ptr, ptr %3, align 8, !tbaa !1099
  %6 = getelementptr inbounds nuw %"struct.std::_Bit_iterator_base", ptr %5, i32 0, i32 0
  %7 = load ptr, ptr %6, align 8, !tbaa !1094
  %8 = load ptr, ptr %4, align 8, !tbaa !1099
  %9 = getelementptr inbounds nuw %"struct.std::_Bit_iterator_base", ptr %8, i32 0, i32 0
  %10 = load ptr, ptr %9, align 8, !tbaa !1094
  %11 = ptrtoint ptr %7 to i64
  %12 = ptrtoint ptr %10 to i64
  %13 = sub i64 %11, %12
  %14 = sdiv exact i64 %13, 8
  %15 = mul nsw i64 64, %14
  %16 = load ptr, ptr %3, align 8, !tbaa !1099
  %17 = getelementptr inbounds nuw %"struct.std::_Bit_iterator_base", ptr %16, i32 0, i32 1
  %18 = load i32, ptr %17, align 8, !tbaa !1101
  %19 = zext i32 %18 to i64
  %20 = add nsw i64 %15, %19
  %21 = load ptr, ptr %4, align 8, !tbaa !1099
  %22 = getelementptr inbounds nuw %"struct.std::_Bit_iterator_base", ptr %21, i32 0, i32 1
  %23 = load i32, ptr %22, align 8, !tbaa !1101
  %24 = zext i32 %23 to i64
  %25 = sub nsw i64 %20, %24
  ret i64 %25
}

; Function Attrs: mustprogress nounwind uwtable
define linkonce_odr hidden { ptr, i32 } @_ZNKSt6vectorIbSaIbEE5beginEv(ptr noundef nonnull align 8 dereferenceable(40) %0) #4 comdat align 2 personality ptr @__gxx_personality_v0 {
  %2 = alloca %"struct.std::_Bit_const_iterator", align 8
  %3 = alloca ptr, align 8
  store ptr %0, ptr %3, align 8, !tbaa !32
  %4 = load ptr, ptr %3, align 8
  %5 = getelementptr inbounds nuw %"struct.std::_Bvector_base", ptr %4, i32 0, i32 0
  %6 = getelementptr inbounds nuw %"struct.std::_Bvector_base<std::allocator<bool>>::_Bvector_impl_data", ptr %5, i32 0, i32 0
  %7 = getelementptr inbounds nuw %"struct.std::_Bit_iterator_base", ptr %6, i32 0, i32 0
  %8 = load ptr, ptr %7, align 8, !tbaa !1094
  invoke void @_ZNSt19_Bit_const_iteratorC2EPmj(ptr noundef nonnull align 8 dereferenceable(12) %2, ptr noundef %8, i32 noundef 0)
          to label %9 unwind label %11

9:                                                ; preds = %1
  %10 = load { ptr, i32 }, ptr %2, align 8
  ret { ptr, i32 } %10

11:                                               ; preds = %1
  %12 = landingpad { ptr, i32 }
          catch ptr null
  %13 = extractvalue { ptr, i32 } %12, 0
  call void @__clang_call_terminate(ptr %13) #23
  unreachable
}

; Function Attrs: mustprogress nounwind uwtable
define linkonce_odr hidden { ptr, i32 } @_ZNKSt6vectorIbSaIbEE3endEv(ptr noundef nonnull align 8 dereferenceable(40) %0) #4 comdat align 2 personality ptr @__gxx_personality_v0 {
  %2 = alloca %"struct.std::_Bit_const_iterator", align 8
  %3 = alloca ptr, align 8
  store ptr %0, ptr %3, align 8, !tbaa !32
  %4 = load ptr, ptr %3, align 8
  %5 = getelementptr inbounds nuw %"struct.std::_Bvector_base", ptr %4, i32 0, i32 0
  %6 = getelementptr inbounds nuw %"struct.std::_Bvector_base<std::allocator<bool>>::_Bvector_impl_data", ptr %5, i32 0, i32 1
  invoke void @_ZNSt19_Bit_const_iteratorC2ERKSt13_Bit_iterator(ptr noundef nonnull align 8 dereferenceable(12) %2, ptr noundef nonnull align 8 dereferenceable(12) %6)
          to label %7 unwind label %9

7:                                                ; preds = %1
  %8 = load { ptr, i32 }, ptr %2, align 8
  ret { ptr, i32 } %8

9:                                                ; preds = %1
  %10 = landingpad { ptr, i32 }
          catch ptr null
  %11 = extractvalue { ptr, i32 } %10, 0
  call void @__clang_call_terminate(ptr %11) #23
  unreachable
}

; Function Attrs: mustprogress uwtable
define linkonce_odr hidden noundef zeroext i1 @_ZNKSt6vectorIbSaIbEEixEm(ptr noundef nonnull align 8 dereferenceable(40) %0, i64 noundef %1) #5 comdat align 2 {
  %3 = alloca ptr, align 8
  %4 = alloca i64, align 8
  %5 = alloca %"struct.std::_Bit_const_iterator", align 8
  %6 = alloca { ptr, i32 }, align 8
  store ptr %0, ptr %3, align 8, !tbaa !32
  store i64 %1, ptr %4, align 8, !tbaa !56
  %7 = load ptr, ptr %3, align 8
  call void @llvm.lifetime.start.p0(i64 16, ptr %5) #3
  %8 = call { ptr, i32 } @_ZNKSt6vectorIbSaIbEE5beginEv(ptr noundef nonnull align 8 dereferenceable(40) %7) #3
  store { ptr, i32 } %8, ptr %6, align 8
  call void @llvm.memcpy.p0.p0.i64(ptr align 8 %5, ptr align 8 %6, i64 12, i1 false)
  %9 = load i64, ptr %4, align 8, !tbaa !56
  %10 = call noundef zeroext i1 @_ZNKSt19_Bit_const_iteratorixEl(ptr noundef nonnull align 8 dereferenceable(12) %5, i64 noundef %9)
  call void @llvm.lifetime.end.p0(i64 16, ptr %5) #3
  ret i1 %10
}

; Function Attrs: inlinehint mustprogress nounwind uwtable
define linkonce_odr hidden noundef ptr @_ZN2cv3Mat3ptrIhEEPT_i(ptr noundef nonnull align 8 dereferenceable(96) %0, i32 noundef %1) #8 comdat align 2 {
  %3 = alloca ptr, align 8
  %4 = alloca i32, align 4
  store ptr %0, ptr %3, align 8, !tbaa !30
  store i32 %1, ptr %4, align 4, !tbaa !34
  %5 = load ptr, ptr %3, align 8
  %6 = getelementptr inbounds nuw %"class.cv::Mat", ptr %5, i32 0, i32 4
  %7 = load ptr, ptr %6, align 8, !tbaa !82
  %8 = getelementptr inbounds nuw %"class.cv::Mat", ptr %5, i32 0, i32 11
  %9 = getelementptr inbounds nuw %"struct.cv::MatStep", ptr %8, i32 0, i32 0
  %10 = load ptr, ptr %9, align 8, !tbaa !83
  %11 = getelementptr inbounds i64, ptr %10, i64 0
  %12 = load i64, ptr %11, align 8, !tbaa !56
  %13 = load i32, ptr %4, align 4, !tbaa !34
  %14 = sext i32 %13 to i64
  %15 = mul i64 %12, %14
  %16 = getelementptr inbounds nuw i8, ptr %7, i64 %15
  ret ptr %16
}

; Function Attrs: mustprogress nounwind uwtable
define linkonce_odr hidden noundef i64 @_ZNKSt6vectorIbSaIbEE4sizeEv(ptr noundef nonnull align 8 dereferenceable(40) %0) #4 comdat align 2 {
  %2 = alloca ptr, align 8
  %3 = alloca %"struct.std::_Bit_const_iterator", align 8
  %4 = alloca { ptr, i32 }, align 8
  %5 = alloca %"struct.std::_Bit_const_iterator", align 8
  %6 = alloca { ptr, i32 }, align 8
  store ptr %0, ptr %2, align 8, !tbaa !32
  %7 = load ptr, ptr %2, align 8
  call void @llvm.lifetime.start.p0(i64 16, ptr %3) #3
  %8 = call { ptr, i32 } @_ZNKSt6vectorIbSaIbEE3endEv(ptr noundef nonnull align 8 dereferenceable(40) %7) #3
  store { ptr, i32 } %8, ptr %4, align 8
  call void @llvm.memcpy.p0.p0.i64(ptr align 8 %3, ptr align 8 %4, i64 12, i1 false)
  call void @llvm.lifetime.start.p0(i64 16, ptr %5) #3
  %9 = call { ptr, i32 } @_ZNKSt6vectorIbSaIbEE5beginEv(ptr noundef nonnull align 8 dereferenceable(40) %7) #3
  store { ptr, i32 } %9, ptr %6, align 8
  call void @llvm.memcpy.p0.p0.i64(ptr align 8 %5, ptr align 8 %6, i64 12, i1 false)
  %10 = call noundef i64 @_ZStmiRKSt18_Bit_iterator_baseS1_(ptr noundef nonnull align 8 dereferenceable(12) %3, ptr noundef nonnull align 8 dereferenceable(12) %5)
  call void @llvm.lifetime.end.p0(i64 16, ptr %5) #3
  call void @llvm.lifetime.end.p0(i64 16, ptr %3) #3
  ret i64 %10
}

; Function Attrs: mustprogress uwtable
define hidden void @_ZN2cv4usac8saveMaskERKNS_12_OutputArrayERKSt6vectorIbSaIbEE(ptr noundef nonnull align 8 dereferenceable(24) %0, ptr noundef nonnull align 8 dereferenceable(40) %1) #5 personality ptr @__gxx_personality_v0 {
  %3 = alloca ptr, align 8
  %4 = alloca ptr, align 8
  %5 = alloca i32, align 4
  %6 = alloca %"class.cv::Mat", align 8
  %7 = alloca ptr, align 8
  %8 = alloca ptr, align 8
  %9 = alloca i32, align 4
  %10 = alloca i32, align 4
  store ptr %0, ptr %3, align 8, !tbaa !76
  store ptr %1, ptr %4, align 8, !tbaa !32
  %11 = load ptr, ptr %3, align 8, !tbaa !76
  %12 = call noundef zeroext i1 @_ZNK2cv12_OutputArray6neededEv(ptr noundef nonnull align 8 dereferenceable(24) %11)
  br i1 %12, label %13, label %51

13:                                               ; preds = %2
  call void @llvm.lifetime.start.p0(i64 4, ptr %5) #3
  %14 = load ptr, ptr %4, align 8, !tbaa !32
  %15 = call noundef i64 @_ZNKSt6vectorIbSaIbEE4sizeEv(ptr noundef nonnull align 8 dereferenceable(40) %14) #3
  %16 = trunc i64 %15 to i32
  store i32 %16, ptr %5, align 4, !tbaa !34
  call void @llvm.lifetime.start.p0(i64 96, ptr %6) #3
  %17 = load i32, ptr %5, align 4, !tbaa !34
  call void @_ZN2cv3MatC1Eiii(ptr noundef nonnull align 8 dereferenceable(96) %6, i32 noundef %17, i32 noundef 1, i32 noundef 0)
  call void @llvm.lifetime.start.p0(i64 8, ptr %7) #3
  %18 = invoke noundef ptr @_ZN2cv3Mat3ptrIhEEPT_i(ptr noundef nonnull align 8 dereferenceable(96) %6, i32 noundef 0)
          to label %19 unwind label %25

19:                                               ; preds = %13
  store ptr %18, ptr %7, align 8, !tbaa !78
  call void @llvm.lifetime.start.p0(i64 4, ptr %10) #3
  store i32 0, ptr %10, align 4, !tbaa !34
  br label %20

20:                                               ; preds = %40, %19
  %21 = load i32, ptr %10, align 4, !tbaa !34
  %22 = load i32, ptr %5, align 4, !tbaa !34
  %23 = icmp slt i32 %21, %22
  br i1 %23, label %29, label %24

24:                                               ; preds = %20
  call void @llvm.lifetime.end.p0(i64 4, ptr %10) #3
  br label %47

25:                                               ; preds = %47, %13
  %26 = landingpad { ptr, i32 }
          cleanup
  %27 = extractvalue { ptr, i32 } %26, 0
  store ptr %27, ptr %8, align 8
  %28 = extractvalue { ptr, i32 } %26, 1
  store i32 %28, ptr %9, align 4
  br label %50

29:                                               ; preds = %20
  %30 = load ptr, ptr %4, align 8, !tbaa !32
  %31 = load i32, ptr %10, align 4, !tbaa !34
  %32 = sext i32 %31 to i64
  %33 = invoke noundef zeroext i1 @_ZNKSt6vectorIbSaIbEEixEm(ptr noundef nonnull align 8 dereferenceable(40) %30, i64 noundef %32)
          to label %34 unwind label %43

34:                                               ; preds = %29
  %35 = zext i1 %33 to i8
  %36 = load ptr, ptr %7, align 8, !tbaa !78
  %37 = load i32, ptr %10, align 4, !tbaa !34
  %38 = sext i32 %37 to i64
  %39 = getelementptr inbounds i8, ptr %36, i64 %38
  store i8 %35, ptr %39, align 1, !tbaa !79
  br label %40

40:                                               ; preds = %34
  %41 = load i32, ptr %10, align 4, !tbaa !34
  %42 = add nsw i32 %41, 1
  store i32 %42, ptr %10, align 4, !tbaa !34
  br label %20, !llvm.loop !80

43:                                               ; preds = %29
  %44 = landingpad { ptr, i32 }
          cleanup
  %45 = extractvalue { ptr, i32 } %44, 0
  store ptr %45, ptr %8, align 8
  %46 = extractvalue { ptr, i32 } %44, 1
  store i32 %46, ptr %9, align 4
  call void @llvm.lifetime.end.p0(i64 4, ptr %10) #3
  br label %50

47:                                               ; preds = %24
  %48 = load ptr, ptr %3, align 8, !tbaa !76
  invoke void @_ZNK2cv3Mat6copyToERKNS_12_OutputArrayE(ptr noundef nonnull align 8 dereferenceable(96) %6, ptr noundef nonnull align 8 dereferenceable(24) %48)
          to label %49 unwind label %25

49:                                               ; preds = %47
  call void @llvm.lifetime.end.p0(i64 8, ptr %7) #3
  call void @_ZN2cv3MatD1Ev(ptr noundef nonnull align 8 dereferenceable(96) %6) #3
  call void @llvm.lifetime.end.p0(i64 96, ptr %6) #3
  call void @llvm.lifetime.end.p0(i64 4, ptr %5) #3
  br label %51

50:                                               ; preds = %43, %25
  call void @llvm.lifetime.end.p0(i64 8, ptr %7) #3
  call void @_ZN2cv3MatD1Ev(ptr noundef nonnull align 8 dereferenceable(96) %6) #3
  call void @llvm.lifetime.end.p0(i64 96, ptr %6) #3
  call void @llvm.lifetime.end.p0(i64 4, ptr %5) #3
  br label %52

51:                                               ; preds = %49, %2
  ret void

52:                                               ; preds = %50
  %53 = load ptr, ptr %8, align 8
  %54 = load i32, ptr %9, align 4
  %55 = insertvalue { ptr, i32 } poison, ptr %53, 0
  %56 = insertvalue { ptr, i32 } %55, i32 %54, 1
  resume { ptr, i32 } %56
}