; Function Attrs: mustprogress uwtable
define hidden void @_ZN2cv4usac8saveMaskERKNS_12_OutputArrayERKSt6vectorIbSaIbEE(ptr noundef nonnull align 8 dereferenceable(24) %0, ptr noundef nonnull readonly align 8 captures(none) dereferenceable(40) %1) local_unnamed_addr #4 personality ptr @__gxx_personality_v0 {
  %3 = alloca %"class.cv::Mat", align 8
  %4 = tail call noundef zeroext i1 @_ZNK2cv12_OutputArray6neededEv(ptr noundef nonnull align 8 dereferenceable(24) %0)
  br i1 %4, label %5, label %33

5:                                                ; preds = %2
  %6 = getelementptr inbounds nuw i8, ptr %1, i64 16
  %7 = load ptr, ptr %6, align 8, !tbaa !82
  %8 = getelementptr inbounds nuw i8, ptr %1, i64 24
  %9 = load i32, ptr %8, align 8, !tbaa !84
  %10 = load ptr, ptr %1, align 8, !tbaa !82
  %11 = ptrtoint ptr %7 to i64
  %12 = ptrtoint ptr %10 to i64
  %13 = sub i64 %11, %12
  %.tr = trunc i64 %13 to i32
  %14 = shl i32 %.tr, 3
  %15 = add i32 %14, %9
  call void @llvm.lifetime.start.p0(i64 96, ptr nonnull %3) #27
  call void @_ZN2cv3MatC1Eiii(ptr noundef nonnull align 8 dereferenceable(96) %3, i32 noundef %15, i32 noundef 1, i32 noundef 0)
  %16 = getelementptr inbounds nuw i8, ptr %3, i64 16
  %17 = load ptr, ptr %16, align 8, !tbaa !85
  %18 = icmp sgt i32 %15, 0
  br i1 %18, label %.lr.ph.preheader, label %._crit_edge

.lr.ph.preheader:                                 ; preds = %5
  %19 = zext nneg i32 %15 to i64
  br label %.lr.ph

._crit_edge:                                      ; preds = %.lr.ph, %5
  invoke void @_ZNK2cv3Mat6copyToERKNS_12_OutputArrayE(ptr noundef nonnull align 8 dereferenceable(96) %3, ptr noundef nonnull align 8 dereferenceable(24) %0)
          to label %32 unwind label %20

20:                                               ; preds = %._crit_edge
  %21 = landingpad { ptr, i32 }
          cleanup
  call void @_ZN2cv3MatD1Ev(ptr noundef nonnull align 8 dereferenceable(96) %3) #27
  call void @llvm.lifetime.end.p0(i64 96, ptr nonnull %3) #27
  resume { ptr, i32 } %21

.lr.ph:                                           ; preds = %.lr.ph.preheader, %.lr.ph
  %indvars.iv = phi i64 [ 0, %.lr.ph.preheader ], [ %indvars.iv.next, %.lr.ph ]
  %22 = load ptr, ptr %1, align 8, !tbaa !82
  %23 = lshr i64 %indvars.iv, 6
  %24 = getelementptr inbounds nuw i64, ptr %22, i64 %23
  %25 = and i64 %indvars.iv, 63
  %26 = load i64, ptr %24, align 8, !tbaa !86
  %27 = lshr i64 %26, %25
  %28 = trunc i64 %27 to i8
  %29 = and i8 %28, 1
  %30 = getelementptr inbounds nuw i8, ptr %17, i64 %indvars.iv
  store i8 %29, ptr %30, align 1, !tbaa !88
  %indvars.iv.next = add nuw nsw i64 %indvars.iv, 1
  %31 = icmp samesign ult i64 %indvars.iv.next, %19
  br i1 %31, label %.lr.ph, label %._crit_edge, !llvm.loop !89

32:                                               ; preds = %._crit_edge
  call void @_ZN2cv3MatD1Ev(ptr noundef nonnull align 8 dereferenceable(96) %3) #27
  call void @llvm.lifetime.end.p0(i64 96, ptr nonnull %3) #27
  br label %33

33:                                               ; preds = %32, %2
  ret void
}